(dp0
S'ref_point'
p1
(dp2
S'ctZI'
p3
S'1'
p4
sS'ctZ'
p5
g4
ssS'rw_dict'
p6
(dp7
S'ctZ_0p_ctZI_1p'
p8
I2
sS'ctZ_0p_ctZI_0p'
p9
I0
sS'ctZ_2p_ctZI_0p'
p10
I3
sS'ctZ_0p_ctZI_2p'
p11
I5
sS'ctZ_1p_ctZI_0p'
p12
I1
sS'ctZ_1p_ctZI_1p'
p13
I4
ssS'order'
p14
(dp15
g14
I2
ss.